; Function Attrs: nounwind uwtable
define ptr @l_Lean_Compiler_LCNF_Check_checkTypes___rarg(ptr noundef %0, ptr noundef %1, ptr noundef %2, ptr noundef %3, ptr noundef %4) local_unnamed_addr #0 {
  %6 = tail call ptr @l_Lean_Compiler_LCNF_getConfig(ptr noundef %0, ptr noundef %1, ptr noundef %2, ptr noundef %3, ptr noundef %4) #4
  %.val = load i32, ptr %6, align 4, !tbaa !4
  %7 = icmp eq i32 %.val, 1
  %8 = getelementptr inbounds nuw i8, ptr %6, i64 8
  %9 = load ptr, ptr %8, align 8, !tbaa !9
  br i1 %7, label %10, label %25

10:                                               ; preds = %5
  %11 = getelementptr i8, ptr %9, i64 32
  %.val34 = load i8, ptr %11, align 1, !tbaa !11
  %12 = ptrtoint ptr %9 to i64
  %13 = and i64 %12, 1
  %.not42 = icmp eq i64 %13, 0
  br i1 %.not42, label %14, label %lean_dec.exit

14:                                               ; preds = %10
  %15 = load i32, ptr %9, align 4, !tbaa !4
  %16 = icmp sgt i32 %15, 1
  br i1 %16, label %17, label %19, !prof !12

17:                                               ; preds = %14
  %18 = add nsw i32 %15, -1
  store i32 %18, ptr %9, align 4, !tbaa !4
  br label %lean_dec.exit

19:                                               ; preds = %14
  %.not.i32 = icmp eq i32 %15, 0
  br i1 %.not.i32, label %lean_dec.exit, label %20

20:                                               ; preds = %19
  tail call void @lean_dec_ref_cold(ptr noundef nonnull %9) #4
  br label %lean_dec.exit

lean_dec.exit:                                    ; preds = %20, %19, %17, %10
  %21 = zext i8 %.val34 to i64
  %22 = shl nuw nsw i64 %21, 1
  %23 = or disjoint i64 %22, 1
  %24 = inttoptr i64 %23 to ptr
  store ptr %24, ptr %8, align 8, !tbaa !9
  br label %71

25:                                               ; preds = %5
  %26 = getelementptr inbounds nuw i8, ptr %6, i64 16
  %27 = load ptr, ptr %26, align 8, !tbaa !9
  %28 = ptrtoint ptr %27 to i64
  %29 = and i64 %28, 1
  %.not = icmp eq i64 %29, 0
  br i1 %.not, label %30, label %lean_inc.exit

30:                                               ; preds = %25
  %.val.i = load i32, ptr %27, align 4, !tbaa !4
  %31 = icmp sgt i32 %.val.i, 0
  br i1 %31, label %32, label %34, !prof !12

32:                                               ; preds = %30
  %33 = add nuw i32 %.val.i, 1
  store i32 %33, ptr %27, align 4, !tbaa !4
  br label %lean_inc.exit

34:                                               ; preds = %30
  %.not.i36 = icmp eq i32 %.val.i, 0
  br i1 %.not.i36, label %lean_inc.exit, label %35

35:                                               ; preds = %34
  tail call void @lean_inc_ref_cold(ptr noundef nonnull %27) #4
  br label %lean_inc.exit

lean_inc.exit:                                    ; preds = %35, %34, %32, %25
  %36 = ptrtoint ptr %9 to i64
  %37 = and i64 %36, 1
  %.not40 = icmp eq i64 %37, 0
  br i1 %.not40, label %38, label %lean_inc.exit29

38:                                               ; preds = %lean_inc.exit
  %.val.i37 = load i32, ptr %9, align 4, !tbaa !4
  %39 = icmp sgt i32 %.val.i37, 0
  br i1 %39, label %40, label %42, !prof !12

40:                                               ; preds = %38
  %41 = add nuw i32 %.val.i37, 1
  store i32 %41, ptr %9, align 4, !tbaa !4
  br label %lean_inc.exit29

42:                                               ; preds = %38
  %.not.i38 = icmp eq i32 %.val.i37, 0
  br i1 %.not.i38, label %lean_inc.exit29, label %43

43:                                               ; preds = %42
  tail call void @lean_inc_ref_cold(ptr noundef nonnull %9) #4
  br label %lean_inc.exit29

lean_inc.exit29:                                  ; preds = %43, %42, %40, %lean_inc.exit
  %44 = ptrtoint ptr %6 to i64
  %45 = and i64 %44, 1
  %.not41 = icmp eq i64 %45, 0
  br i1 %.not41, label %46, label %lean_dec.exit27

46:                                               ; preds = %lean_inc.exit29
  %47 = load i32, ptr %6, align 4, !tbaa !4
  %48 = icmp sgt i32 %47, 1
  br i1 %48, label %49, label %51, !prof !12

49:                                               ; preds = %46
  %50 = add nsw i32 %47, -1
  store i32 %50, ptr %6, align 4, !tbaa !4
  br label %lean_dec.exit27

51:                                               ; preds = %46
  %.not.i30 = icmp eq i32 %47, 0
  br i1 %.not.i30, label %lean_dec.exit27, label %52

52:                                               ; preds = %51
  tail call void @lean_dec_ref_cold(ptr noundef nonnull %6) #4
  br label %lean_dec.exit27

lean_dec.exit27:                                  ; preds = %52, %51, %49, %lean_inc.exit29
  %53 = getelementptr i8, ptr %9, i64 32
  %.val35 = load i8, ptr %53, align 1, !tbaa !11
  br i1 %.not40, label %54, label %lean_dec.exit28

54:                                               ; preds = %lean_dec.exit27
  %55 = load i32, ptr %9, align 4, !tbaa !4
  %56 = icmp sgt i32 %55, 1
  br i1 %56, label %57, label %59, !prof !12

57:                                               ; preds = %54
  %58 = add nsw i32 %55, -1
  store i32 %58, ptr %9, align 4, !tbaa !4
  br label %lean_dec.exit28

59:                                               ; preds = %54
  %.not.i = icmp eq i32 %55, 0
  br i1 %.not.i, label %lean_dec.exit28, label %60

60:                                               ; preds = %59
  tail call void @lean_dec_ref_cold(ptr noundef nonnull %9) #4
  br label %lean_dec.exit28

lean_dec.exit28:                                  ; preds = %60, %59, %57, %lean_dec.exit27
  tail call void @lean_inc_heartbeat() #4
  %61 = tail call noalias ptr @mi_malloc_small(i64 noundef 24) #4
  %62 = icmp eq ptr %61, null
  br i1 %62, label %63, label %lean_alloc_ctor.exit

63:                                               ; preds = %lean_dec.exit28
  tail call void @lean_internal_panic_out_of_memory() #5
  unreachable

lean_alloc_ctor.exit:                             ; preds = %lean_dec.exit28
  %64 = zext i8 %.val35 to i64
  %65 = shl nuw nsw i64 %64, 1
  %66 = or disjoint i64 %65, 1
  %67 = inttoptr i64 %66 to ptr
  %68 = getelementptr inbounds nuw i8, ptr %61, i64 4
  store i32 1, ptr %61, align 4, !tbaa !4
  store i32 131096, ptr %68, align 4
  %69 = getelementptr inbounds nuw i8, ptr %61, i64 8
  store ptr %67, ptr %69, align 8, !tbaa !9
  %70 = getelementptr inbounds nuw i8, ptr %61, i64 16
  store ptr %27, ptr %70, align 8, !tbaa !9
  br label %71

71:                                               ; preds = %lean_alloc_ctor.exit, %lean_dec.exit
  %.0 = phi ptr [ %6, %lean_dec.exit ], [ %61, %lean_alloc_ctor.exit ]
  ret ptr %.0
}